; Function Attrs: nounwind uwtable
define internal range(i32 -2147483648, 1) i32 @kvag_read_packet(ptr noundef readonly captures(none) %0, ptr noundef %1) #1 {
  %3 = getelementptr inbounds nuw i8, ptr %0, i64 48
  %4 = load ptr, ptr %3, align 8, !tbaa !46
  %5 = load ptr, ptr %4, align 8, !tbaa !47
  %6 = getelementptr inbounds nuw i8, ptr %5, i64 16
  %7 = load ptr, ptr %6, align 8, !tbaa !27
  %8 = getelementptr inbounds nuw i8, ptr %0, i64 32
  %9 = load ptr, ptr %8, align 8, !tbaa !12
  %10 = tail call i32 @av_get_packet(ptr noundef %9, ptr noundef %1, i32 noundef 4096) #4
  %11 = icmp slt i32 %10, 0
  br i1 %11, label %26, label %12

12:                                               ; preds = %2
  %13 = getelementptr inbounds nuw i8, ptr %1, i64 40
  %14 = load i32, ptr %13, align 8, !tbaa !49
  %15 = and i32 %14, -3
  store i32 %15, ptr %13, align 8, !tbaa !49
  %16 = getelementptr inbounds nuw i8, ptr %1, i64 36
  store i32 0, ptr %16, align 4, !tbaa !50
  %17 = getelementptr inbounds nuw i8, ptr %7, i64 56
  %18 = load i32, ptr %17, align 8, !tbaa !40
  %19 = sdiv i32 8, %18
  %20 = mul nsw i32 %19, %10
  %21 = getelementptr inbounds nuw i8, ptr %7, i64 132
  %22 = load i32, ptr %21, align 4, !tbaa !42
  %23 = sdiv i32 %20, %22
  %24 = sext i32 %23 to i64
  %25 = getelementptr inbounds nuw i8, ptr %1, i64 64
  store i64 %24, ptr %25, align 8, !tbaa !51
  br label %26

26:                                               ; preds = %2, %12
  %.0 = phi i32 [ 0, %12 ], [ %10, %2 ]
  ret i32 %.0
}